; Function Attrs: mustprogress uwtable
define noundef double @_ZNK8QuantLib11BondForward9spotValueEv(ptr nocapture noundef nonnull readonly align 8 dereferenceable(240) %this) unnamed_addr #9 align 2 {
entry:
  %bond_ = getelementptr inbounds nuw i8, ptr %this, i64 224
  %0 = load ptr, ptr %bond_, align 8, !tbaa !74
  %cmp.not.i = icmp eq ptr %0, null
  br i1 %cmp.not.i, label %cond.false.i, label %_ZNK5boost10shared_ptrIN8QuantLib4BondEEptEv.exit, !prof !88

cond.false.i:                                     ; preds = %entry
  tail call void @_ZN5boost16assertion_failedEPKcS1_S1_l(ptr noundef nonnull @.str.9, ptr noundef nonnull @__PRETTY_FUNCTION__._ZNK5boost10shared_ptrIN8QuantLib4BondEEptEv, ptr noundef nonnull @.str.10, i64 noundef 784)
  %.pre.i = load ptr, ptr %bond_, align 8, !tbaa !74
  br label %_ZNK5boost10shared_ptrIN8QuantLib4BondEEptEv.exit

_ZNK5boost10shared_ptrIN8QuantLib4BondEEptEv.exit: ; preds = %entry, %cond.false.i
  %1 = phi ptr [ %0, %entry ], [ %.pre.i, %cond.false.i ]
  %call2 = tail call noundef double @_ZNK8QuantLib4Bond10dirtyPriceEv(ptr noundef nonnull align 8 dereferenceable(248) %1)
  ret double %call2
}